target datalayout = "e-m:e-p270:32:32-p271:32:32-p272:64:64-i64:64-i128:128-f80:128-n8:16:32:64-S128"
target triple = "x86_64-unknown-linux-gnu"

%struct.LSIState = type { %struct.PCIDevice, ptr, %struct.MemoryRegion, %struct.MemoryRegion, %struct.MemoryRegion, %struct.AddressSpace, i32, i32, i32, i32, [8 x i8], i32, %struct.SCSIBus, i32, i32, i32, %union.anon.4, ptr, i32, i32, i32, i32, i8, i8, i8, i8, i8, i8, i8, i8, i8, i8, i8, i8, i8, i8, i8, i8, i8, i8, i32, i32, i8, i8, i8, i8, i8, i8, i8, i8, i8, i8, i8, i8, i8, i8, i8, i8, i8, i8, i8, i8, i8, i8, i32, i32, i32, i32, i32, i32, i32, i32, i32, i32, i32, i32, i32, i32, [18 x i32], i8, i32, [8192 x i8] }
%struct.PCIDevice = type { %struct.DeviceState, i8, i8, ptr, ptr, ptr, ptr, ptr, i32, %struct.PCIReqIDCache, [64 x i8], [7 x %struct.PCIIORegion], %struct.AddressSpace, %struct.MemoryRegion, %struct.MemoryRegion, ptr, ptr, [3 x ptr], i8, i8, i32, i8, i32, ptr, ptr, ptr, ptr, ptr, ptr, %struct.MemoryRegion, %struct.MemoryRegion, %struct.MemoryRegion, ptr, i8, i32, i8, %struct.PCIExpressDevice, ptr, ptr, i32, i8, %struct.MemoryRegion, i32, ptr, ptr, ptr, ptr, ptr, i32 }
%struct.DeviceState = type { %struct.Object, ptr, ptr, i8, i8, i64, ptr, i32, i8, ptr, %struct.NamedGPIOListHead, %struct.NamedClockListHead, %struct.BusStateHead, i32, i32, i32, %struct.ResettableState, ptr, %struct.MemReentrancyGuard }
%struct.Object = type { ptr, ptr, ptr, i32, ptr }
%struct.NamedGPIOListHead = type { ptr }
%struct.NamedClockListHead = type { ptr }
%struct.BusStateHead = type { ptr }
%struct.ResettableState = type { i32, i8, i8 }
%struct.MemReentrancyGuard = type { i8 }
%struct.PCIReqIDCache = type { ptr, i32 }
%struct.PCIIORegion = type { i64, i64, i8, ptr, ptr }
%struct.PCIExpressDevice = type { i8, i8, i8, i16, %struct.PCIEAERLog, i16, i16, i16, %struct.PCIESriovPF, %struct.PCIESriovVF }
%struct.PCIEAERLog = type { i16, i16, ptr }
%struct.PCIESriovPF = type { i16, [7 x i8], ptr, ptr }
%struct.PCIESriovVF = type { ptr, i16 }
%struct.MemoryRegion = type { %struct.Object, i8, i8, i8, i8, i8, i8, i8, i8, i8, i8, ptr, ptr, ptr, ptr, ptr, ptr, i32, i128, i64, ptr, i64, i8, i8, i8, i8, i8, ptr, i64, i32, %union.anon.1, %union.anon.2, %union.anon.3, ptr, i32, ptr, ptr, i8 }
%union.anon.1 = type { %struct.QTailQLink }
%struct.QTailQLink = type { ptr, ptr }
%union.anon.2 = type { %struct.QTailQLink }
%union.anon.3 = type { %struct.QTailQLink }
%struct.AddressSpace = type { %struct.rcu_head, ptr, ptr, ptr, i32, i32, ptr, %union.anon, %union.anon.0 }
%struct.rcu_head = type { ptr, ptr }
%union.anon = type { %struct.QTailQLink }
%union.anon.0 = type { %struct.QTailQLink }
%struct.SCSIBus = type { %struct.BusState, i32, %struct.SCSISense, ptr, i32 }
%struct.BusState = type { %struct.Object, ptr, ptr, ptr, i32, i8, i8, i32, %union.BusChildHead, %struct.BusStateEntry, %struct.ResettableState }
%union.BusChildHead = type { %struct.QTailQLink }
%struct.BusStateEntry = type { ptr, ptr }
%struct.SCSISense = type { i8, i8, i8 }
%union.anon.4 = type { %struct.QTailQLink }
%struct.timeval = type { i64, i64 }

@trace_events_enabled_count = external global i32, align 4
@message_with_timestamp = external global i8, align 1
@qemu_loglevel = external global i32, align 4
@_TRACE_LSI_SCRIPT_DMA_INTERRUPT_DSTATE = external global i16, align 2
@.str.137 = private unnamed_addr constant [68 x i8] c"%d@%zu.%06zu:lsi_script_dma_interrupt DMA Interrupt 0x%x prev 0x%x\0A\00", align 1
@.str.138 = private unnamed_addr constant [55 x i8] c"lsi_script_dma_interrupt DMA Interrupt 0x%x prev 0x%x\0A\00", align 1

; Function Attrs: nounwind sspstrong uwtable
define internal zeroext i1 @qemu_loglevel_mask(i32 noundef %mask) #0 {
entry:
  %mask.addr = alloca i32, align 4
  store i32 %mask, ptr %mask.addr, align 4
  %0 = load i32, ptr @qemu_loglevel, align 4
  %1 = load i32, ptr %mask.addr, align 4
  %and = and i32 %0, %1
  %cmp = icmp ne i32 %and, 0
  ret i1 %cmp
}

; Function Attrs: nounwind sspstrong uwtable
define internal void @_nocheck__trace_lsi_script_dma_interrupt(i8 noundef zeroext %stat, i8 noundef zeroext %dstat) #0 {
entry:
  %stat.addr = alloca i8, align 1
  %dstat.addr = alloca i8, align 1
  %_now = alloca %struct.timeval, align 8
  store i8 %stat, ptr %stat.addr, align 1
  store i8 %dstat, ptr %dstat.addr, align 1
  %0 = load i32, ptr @trace_events_enabled_count, align 4
  %tobool = icmp ne i32 %0, 0
  %lnot = xor i1 %tobool, true
  %lnot1 = xor i1 %lnot, true
  %lnot.ext = zext i1 %lnot1 to i32
  %conv = sext i32 %lnot.ext to i64
  %tobool2 = icmp ne i64 %conv, 0
  br i1 %tobool2, label %land.lhs.true, label %if.end15

land.lhs.true:                                    ; preds = %entry
  %1 = load i16, ptr @_TRACE_LSI_SCRIPT_DMA_INTERRUPT_DSTATE, align 2
  %conv3 = zext i16 %1 to i32
  %tobool4 = icmp ne i32 %conv3, 0
  br i1 %tobool4, label %land.lhs.true5, label %if.end15

land.lhs.true5:                                   ; preds = %land.lhs.true
  %call = call zeroext i1 @qemu_loglevel_mask(i32 noundef 32768)
  br i1 %call, label %if.then, label %if.end15

if.then:                                          ; preds = %land.lhs.true5
  %2 = load i8, ptr @message_with_timestamp, align 1
  %tobool7 = trunc i8 %2 to i1
  br i1 %tobool7, label %if.then8, label %if.else

if.then8:                                         ; preds = %if.then
  %call9 = call i32 @gettimeofday(ptr noundef %_now, ptr noundef null) #10
  %call10 = call i32 @qemu_get_thread_id()
  %tv_sec = getelementptr inbounds %struct.timeval, ptr %_now, i32 0, i32 0
  %3 = load i64, ptr %tv_sec, align 8
  %tv_usec = getelementptr inbounds %struct.timeval, ptr %_now, i32 0, i32 1
  %4 = load i64, ptr %tv_usec, align 8
  %5 = load i8, ptr %stat.addr, align 1
  %conv11 = zext i8 %5 to i32
  %6 = load i8, ptr %dstat.addr, align 1
  %conv12 = zext i8 %6 to i32
  call void (ptr, ...) @qemu_log(ptr noundef @.str.137, i32 noundef %call10, i64 noundef %3, i64 noundef %4, i32 noundef %conv11, i32 noundef %conv12)
  br label %if.end

if.else:                                          ; preds = %if.then
  %7 = load i8, ptr %stat.addr, align 1
  %conv13 = zext i8 %7 to i32
  %8 = load i8, ptr %dstat.addr, align 1
  %conv14 = zext i8 %8 to i32
  call void (ptr, ...) @qemu_log(ptr noundef @.str.138, i32 noundef %conv13, i32 noundef %conv14)
  br label %if.end

if.end:                                           ; preds = %if.else, %if.then8
  br label %if.end15

if.end15:                                         ; preds = %if.end, %land.lhs.true5, %land.lhs.true, %entry
  ret void
}

; Function Attrs: nounwind sspstrong uwtable
define internal void @lsi_stop_script(ptr noundef %s) #0 {
entry:
  %s.addr = alloca ptr, align 8
  store ptr %s, ptr %s.addr, align 8
  %0 = load ptr, ptr %s.addr, align 8
  %istat1 = getelementptr inbounds %struct.LSIState, ptr %0, i32 0, i32 23
  %1 = load i8, ptr %istat1, align 1
  %conv = zext i8 %1 to i32
  %and = and i32 %conv, -3
  %conv1 = trunc i32 %and to i8
  store i8 %conv1, ptr %istat1, align 1
  ret void
}

; Function Attrs: nounwind sspstrong uwtable
define internal void @trace_lsi_script_dma_interrupt(i8 noundef zeroext %stat, i8 noundef zeroext %dstat) #0 {
entry:
  %stat.addr = alloca i8, align 1
  %dstat.addr = alloca i8, align 1
  store i8 %stat, ptr %stat.addr, align 1
  store i8 %dstat, ptr %dstat.addr, align 1
  %0 = load i8, ptr %stat.addr, align 1
  %1 = load i8, ptr %dstat.addr, align 1
  call void @_nocheck__trace_lsi_script_dma_interrupt(i8 noundef zeroext %0, i8 noundef zeroext %1)
  ret void
}

; Function Attrs: nounwind sspstrong uwtable
define internal void @lsi_script_dma_interrupt(ptr noundef %s, i32 noundef %stat) #0 {
entry:
  %s.addr = alloca ptr, align 8
  %stat.addr = alloca i32, align 4
  store ptr %s, ptr %s.addr, align 8
  store i32 %stat, ptr %stat.addr, align 4
  %0 = load i32, ptr %stat.addr, align 4
  %conv = trunc i32 %0 to i8
  %1 = load ptr, ptr %s.addr, align 8
  %dstat = getelementptr inbounds %struct.LSIState, ptr %1, i32 0, i32 25
  %2 = load i8, ptr %dstat, align 1
  call void @trace_lsi_script_dma_interrupt(i8 noundef zeroext %conv, i8 noundef zeroext %2)
  %3 = load i32, ptr %stat.addr, align 4
  %4 = load ptr, ptr %s.addr, align 8
  %dstat1 = getelementptr inbounds %struct.LSIState, ptr %4, i32 0, i32 25
  %5 = load i8, ptr %dstat1, align 1
  %conv2 = zext i8 %5 to i32
  %or = or i32 %conv2, %3
  %conv3 = trunc i32 %or to i8
  store i8 %conv3, ptr %dstat1, align 1
  %6 = load ptr, ptr %s.addr, align 8
  call void @lsi_update_irq(ptr noundef %6)
  %7 = load ptr, ptr %s.addr, align 8
  call void @lsi_stop_script(ptr noundef %7)
  ret void
}