; Function Attrs: nounwind sspstrong uwtable
define internal fastcc void @lsi_script_dma_interrupt(ptr noundef %s, i32 noundef range(i32 1, 17) %stat) unnamed_addr #0 {
entry:
  %_now.i.i = alloca %struct.timeval, align 8
  %dstat = getelementptr inbounds nuw i8, ptr %s, i64 3763
  %0 = load i8, ptr %dstat, align 1
  call void @llvm.lifetime.start.p0(i64 16, ptr nonnull %_now.i.i)
  %1 = load i32, ptr @trace_events_enabled_count, align 4
  %tobool.i.i = icmp ne i32 %1, 0
  %2 = load i16, ptr @_TRACE_LSI_SCRIPT_DMA_INTERRUPT_DSTATE, align 2
  %tobool4.i.i = icmp ne i16 %2, 0
  %or.cond.i.i = select i1 %tobool.i.i, i1 %tobool4.i.i, i1 false
  br i1 %or.cond.i.i, label %land.lhs.true5.i.i, label %trace_lsi_script_dma_interrupt.exit

land.lhs.true5.i.i:                               ; preds = %entry
  %3 = load i32, ptr @qemu_loglevel, align 4
  %and.i.i.i = and i32 %3, 32768
  %cmp.i.not.i.i = icmp eq i32 %and.i.i.i, 0
  br i1 %cmp.i.not.i.i, label %trace_lsi_script_dma_interrupt.exit, label %if.then.i.i

if.then.i.i:                                      ; preds = %land.lhs.true5.i.i
  %4 = load i8, ptr @message_with_timestamp, align 1
  %tobool7.i.i = trunc i8 %4 to i1
  br i1 %tobool7.i.i, label %if.then8.i.i, label %if.else.i.i

if.then8.i.i:                                     ; preds = %if.then.i.i
  %call9.i.i = call i32 @gettimeofday(ptr noundef nonnull %_now.i.i, ptr noundef null) #12
  %call10.i.i = tail call i32 @qemu_get_thread_id() #12
  %5 = load i64, ptr %_now.i.i, align 8
  %tv_usec.i.i = getelementptr inbounds nuw i8, ptr %_now.i.i, i64 8
  %6 = load i64, ptr %tv_usec.i.i, align 8
  %conv12.i.i = zext i8 %0 to i32
  tail call void (ptr, ...) @qemu_log(ptr noundef nonnull @.str.137, i32 noundef %call10.i.i, i64 noundef %5, i64 noundef %6, i32 noundef %stat, i32 noundef %conv12.i.i) #12
  br label %trace_lsi_script_dma_interrupt.exit

if.else.i.i:                                      ; preds = %if.then.i.i
  %conv14.i.i = zext i8 %0 to i32
  tail call void (ptr, ...) @qemu_log(ptr noundef nonnull @.str.138, i32 noundef %stat, i32 noundef %conv14.i.i) #12
  br label %trace_lsi_script_dma_interrupt.exit

trace_lsi_script_dma_interrupt.exit:              ; preds = %entry, %land.lhs.true5.i.i, %if.then8.i.i, %if.else.i.i
  %conv = trunc nuw nsw i32 %stat to i8
  call void @llvm.lifetime.end.p0(i64 16, ptr nonnull %_now.i.i)
  %7 = load i8, ptr %dstat, align 1
  %conv3 = or i8 %7, %conv
  store i8 %conv3, ptr %dstat, align 1
  tail call fastcc void @lsi_update_irq(ptr noundef nonnull %s)
  %istat1.i = getelementptr inbounds nuw i8, ptr %s, i64 3761
  %8 = load i8, ptr %istat1.i, align 1
  %9 = and i8 %8, -3
  store i8 %9, ptr %istat1.i, align 1
  ret void
}